target datalayout = "e-m:e-p270:32:32-p271:32:32-p272:64:64-i64:64-i128:128-f80:128-n8:16:32:64-S128"
target triple = "x86_64-pc-linux-gnu"

%struct.ident_t = type { i32, i32, i32, i32, ptr }
%"class.gmx::ArrayRef" = type { %"struct.gmx::ArrayRefIter", %"struct.gmx::ArrayRefIter" }
%"struct.gmx::ArrayRefIter" = type { ptr }
%struct.gmx_pme_t = type { i32, i32, i32, i32, i32, i32, i32, ptr, [2 x ptr], ptr, i8, i32, i8, i8, i8, i8, i8, i8, i32, i32, i32, i8, i32, float, float, float, i32, float, i32, ptr, %"class.std::unique_ptr", i32, i32, i32, i32, i32, i32, i32, i32, %"class.std::unique_ptr.2", %"class.std::shared_ptr", %"class.std::vector", %"class.std::vector", %"class.std::vector.10", %"class.std::vector.15", %"class.std::vector.20", %"class.std::vector.20", %"class.std::vector.20", %"class.std::vector.25", %"class.std::vector.25", %"class.std::vector.25", %"class.std::vector.30", [3 x [3 x float]], float, %"struct.std::array", %"class.std::vector.35", %"class.std::vector.35", %"struct.std::array.37", %"class.std::unique_ptr.43", %"class.std::vector.51", %"class.std::vector.25", %"class.std::unique_ptr.56" }
%"class.std::unique_ptr" = type { %"struct.std::__uniq_ptr_data" }
%"struct.std::__uniq_ptr_data" = type { %"class.std::__uniq_ptr_impl" }
%"class.std::__uniq_ptr_impl" = type { %"class.std::tuple" }
%"class.std::tuple" = type { %"struct.std::_Tuple_impl" }
%"struct.std::_Tuple_impl" = type { %"struct.std::_Head_base.1" }
%"struct.std::_Head_base.1" = type { ptr }
%"class.std::unique_ptr.2" = type { %"struct.std::__uniq_ptr_data.3" }
%"struct.std::__uniq_ptr_data.3" = type { %"class.std::__uniq_ptr_impl.4" }
%"class.std::__uniq_ptr_impl.4" = type { %"class.std::tuple.5" }
%"class.std::tuple.5" = type { %"struct.std::_Tuple_impl.6" }
%"struct.std::_Tuple_impl.6" = type { %"struct.std::_Head_base.9" }
%"struct.std::_Head_base.9" = type { ptr }
%"class.std::shared_ptr" = type { %"class.std::__shared_ptr" }
%"class.std::__shared_ptr" = type { ptr, %"class.std::__shared_count" }
%"class.std::__shared_count" = type { ptr }
%"class.std::vector" = type { %"struct.std::_Vector_base" }
%"struct.std::_Vector_base" = type { %"struct.std::_Vector_base<PmeAndFftGrids, std::allocator<PmeAndFftGrids>>::_Vector_impl" }
%"struct.std::_Vector_base<PmeAndFftGrids, std::allocator<PmeAndFftGrids>>::_Vector_impl" = type { %"struct.std::_Vector_base<PmeAndFftGrids, std::allocator<PmeAndFftGrids>>::_Vector_impl_data" }
%"struct.std::_Vector_base<PmeAndFftGrids, std::allocator<PmeAndFftGrids>>::_Vector_impl_data" = type { ptr, ptr, ptr }
%"class.std::vector.10" = type { %"struct.std::_Vector_base.11" }
%"struct.std::_Vector_base.11" = type { %"struct.std::_Vector_base<gmx_pme_t::GridsRef, std::allocator<gmx_pme_t::GridsRef>>::_Vector_impl" }
%"struct.std::_Vector_base<gmx_pme_t::GridsRef, std::allocator<gmx_pme_t::GridsRef>>::_Vector_impl" = type { %"struct.std::_Vector_base<gmx_pme_t::GridsRef, std::allocator<gmx_pme_t::GridsRef>>::_Vector_impl_data" }
%"struct.std::_Vector_base<gmx_pme_t::GridsRef, std::allocator<gmx_pme_t::GridsRef>>::_Vector_impl_data" = type { ptr, ptr, ptr }
%"class.std::vector.15" = type { %"struct.std::_Vector_base.16" }
%"struct.std::_Vector_base.16" = type { %"struct.std::_Vector_base<t_complex *, std::allocator<t_complex *>>::_Vector_impl" }
%"struct.std::_Vector_base<t_complex *, std::allocator<t_complex *>>::_Vector_impl" = type { %"struct.std::_Vector_base<t_complex *, std::allocator<t_complex *>>::_Vector_impl_data" }
%"struct.std::_Vector_base<t_complex *, std::allocator<t_complex *>>::_Vector_impl_data" = type { ptr, ptr, ptr }
%"class.std::vector.20" = type { %"struct.std::_Vector_base.21" }
%"struct.std::_Vector_base.21" = type { %"struct.std::_Vector_base<int, std::allocator<int>>::_Vector_impl" }
%"struct.std::_Vector_base<int, std::allocator<int>>::_Vector_impl" = type { %"struct.std::_Vector_base<int, std::allocator<int>>::_Vector_impl_data" }
%"struct.std::_Vector_base<int, std::allocator<int>>::_Vector_impl_data" = type { ptr, ptr, ptr }
%"class.std::vector.30" = type { %"struct.std::_Vector_base.31" }
%"struct.std::_Vector_base.31" = type { %"struct.std::_Vector_base<PmeAtomComm, std::allocator<PmeAtomComm>>::_Vector_impl" }
%"struct.std::_Vector_base<PmeAtomComm, std::allocator<PmeAtomComm>>::_Vector_impl" = type { %"struct.std::_Vector_base<PmeAtomComm, std::allocator<PmeAtomComm>>::_Vector_impl_data" }
%"struct.std::_Vector_base<PmeAtomComm, std::allocator<PmeAtomComm>>::_Vector_impl_data" = type { ptr, ptr, ptr }
%"struct.std::array" = type { [3 x %"class.std::vector.25"] }
%"class.std::vector.35" = type { %"struct.std::_Vector_base.36" }
%"struct.std::_Vector_base.36" = type { %"struct.std::_Vector_base<float, gmx::DefaultInitializationAllocator<float>>::_Vector_impl" }
%"struct.std::_Vector_base<float, gmx::DefaultInitializationAllocator<float>>::_Vector_impl" = type { %"struct.std::_Vector_base<float, gmx::DefaultInitializationAllocator<float>>::_Vector_impl_data" }
%"struct.std::_Vector_base<float, gmx::DefaultInitializationAllocator<float>>::_Vector_impl_data" = type { ptr, ptr, ptr }
%"struct.std::array.37" = type { [2 x %struct.pme_overlap_t] }
%struct.pme_overlap_t = type { ptr, i32, i32, %"class.std::vector.20", %"class.std::vector.20", i32, %"class.std::vector.38", %"class.std::vector.25", %"class.std::vector.25" }
%"class.std::vector.38" = type { %"struct.std::_Vector_base.39" }
%"struct.std::_Vector_base.39" = type { %"struct.std::_Vector_base<pme_grid_comm_t, std::allocator<pme_grid_comm_t>>::_Vector_impl" }
%"struct.std::_Vector_base<pme_grid_comm_t, std::allocator<pme_grid_comm_t>>::_Vector_impl" = type { %"struct.std::_Vector_base<pme_grid_comm_t, std::allocator<pme_grid_comm_t>>::_Vector_impl_data" }
%"struct.std::_Vector_base<pme_grid_comm_t, std::allocator<pme_grid_comm_t>>::_Vector_impl_data" = type { ptr, ptr, ptr }
%"class.std::unique_ptr.43" = type { %"struct.std::__uniq_ptr_data.44" }
%"struct.std::__uniq_ptr_data.44" = type { %"class.std::__uniq_ptr_impl.45" }
%"class.std::__uniq_ptr_impl.45" = type { %"class.std::tuple.46" }
%"class.std::tuple.46" = type { %"struct.std::_Tuple_impl.47" }
%"struct.std::_Tuple_impl.47" = type { %"struct.std::_Head_base.50" }
%"struct.std::_Head_base.50" = type { ptr }
%"class.std::vector.51" = type { %"struct.std::_Vector_base.52" }
%"struct.std::_Vector_base.52" = type { %"struct.std::_Vector_base<gmx::BasicVector<float>, std::allocator<gmx::BasicVector<float>>>::_Vector_impl" }
%"struct.std::_Vector_base<gmx::BasicVector<float>, std::allocator<gmx::BasicVector<float>>>::_Vector_impl" = type { %"struct.std::_Vector_base<gmx::BasicVector<float>, std::allocator<gmx::BasicVector<float>>>::_Vector_impl_data" }
%"struct.std::_Vector_base<gmx::BasicVector<float>, std::allocator<gmx::BasicVector<float>>>::_Vector_impl_data" = type { ptr, ptr, ptr }
%"class.std::vector.25" = type { %"struct.std::_Vector_base.26" }
%"struct.std::_Vector_base.26" = type { %"struct.std::_Vector_base<float, std::allocator<float>>::_Vector_impl" }
%"struct.std::_Vector_base<float, std::allocator<float>>::_Vector_impl" = type { %"struct.std::_Vector_base<float, std::allocator<float>>::_Vector_impl_data" }
%"struct.std::_Vector_base<float, std::allocator<float>>::_Vector_impl_data" = type { ptr, ptr, ptr }
%"class.std::unique_ptr.56" = type { %"struct.std::__uniq_ptr_data.57" }
%"struct.std::__uniq_ptr_data.57" = type { %"class.std::__uniq_ptr_impl.58" }
%"class.std::__uniq_ptr_impl.58" = type { %"class.std::tuple.59" }
%"class.std::tuple.59" = type { %"struct.std::_Tuple_impl.60" }
%"struct.std::_Tuple_impl.60" = type { %"struct.std::_Head_base.63" }
%"struct.std::_Head_base.63" = type { ptr }

@2 = private unnamed_addr constant %struct.ident_t { i32 0, i32 2, i32 0, i32 22, ptr @0 }, align 8

; Function Attrs: mustprogress nounwind uwtable
define linkonce_odr noundef nonnull align 4 dereferenceable(4) ptr @_ZNK3gmx12ArrayRefIterIfEdeEv(ptr noundef nonnull align 8 dereferenceable(8) %0) #2 comdat align 2 {
  %2 = alloca ptr, align 8
  store ptr %0, ptr %2, align 8, !tbaa !147
  %3 = load ptr, ptr %2, align 8
  %4 = getelementptr inbounds nuw %"struct.gmx::ArrayRefIter", ptr %3, i32 0, i32 0
  %5 = load ptr, ptr %4, align 8, !tbaa !149
  ret ptr %5
}

; Function Attrs: mustprogress nounwind uwtable
define linkonce_odr noundef nonnull align 8 dereferenceable(8) ptr @_ZN3gmx12ArrayRefIterIfEpLEl(ptr noundef nonnull align 8 dereferenceable(8) %0, i64 noundef %1) #2 comdat align 2 {
  %3 = alloca ptr, align 8
  %4 = alloca i64, align 8
  store ptr %0, ptr %3, align 8, !tbaa !147
  store i64 %1, ptr %4, align 8, !tbaa !13
  %5 = load ptr, ptr %3, align 8
  %6 = load i64, ptr %4, align 8, !tbaa !13
  %7 = getelementptr inbounds nuw %"struct.gmx::ArrayRefIter", ptr %5, i32 0, i32 0
  %8 = load ptr, ptr %7, align 8, !tbaa !149
  %9 = getelementptr inbounds float, ptr %8, i64 %6
  store ptr %9, ptr %7, align 8, !tbaa !149
  ret ptr %5
}

; Function Attrs: mustprogress nounwind uwtable
define linkonce_odr noundef nonnull align 8 dereferenceable(8) ptr @_ZNK3gmx5boost14stl_interfaces2v118iterator_interfaceINS_12ArrayRefIterIfEESt26random_access_iterator_tagfRfPflvE7derivedEv(ptr noundef nonnull align 1 dereferenceable(1) %0) #2 comdat align 2 {
  %2 = alloca ptr, align 8
  store ptr %0, ptr %2, align 8, !tbaa !145
  %3 = load ptr, ptr %2, align 8
  ret ptr %3
}

; Function Attrs: mustprogress nounwind uwtable
define linkonce_odr noundef nonnull align 4 dereferenceable(4) ptr @_ZNK3gmx5boost14stl_interfaces2v118iterator_interfaceINS_12ArrayRefIterIfEESt26random_access_iterator_tagfRfPflvEixIS5_EEDTcmpLclsr3stdE7declvalIRT_EEfp_declsr3stdE7declvalISC_EEEl(ptr noundef nonnull align 1 dereferenceable(1) %0, i64 noundef %1) #2 comdat align 2 {
  %3 = alloca ptr, align 8
  %4 = alloca i64, align 8
  %5 = alloca %"struct.gmx::ArrayRefIter", align 8
  store ptr %0, ptr %3, align 8, !tbaa !145
  store i64 %1, ptr %4, align 8, !tbaa !13
  %6 = load ptr, ptr %3, align 8
  call void @llvm.lifetime.start.p0(i64 8, ptr %5) #7
  %7 = call noundef nonnull align 8 dereferenceable(8) ptr @_ZNK3gmx5boost14stl_interfaces2v118iterator_interfaceINS_12ArrayRefIterIfEESt26random_access_iterator_tagfRfPflvE7derivedEv(ptr noundef nonnull align 1 dereferenceable(1) %6) #7
  call void @llvm.memcpy.p0.p0.i64(ptr align 8 %5, ptr align 8 %7, i64 8, i1 false)
  %8 = load i64, ptr %4, align 8, !tbaa !13
  %9 = call noundef nonnull align 8 dereferenceable(8) ptr @_ZN3gmx12ArrayRefIterIfEpLEl(ptr noundef nonnull align 8 dereferenceable(8) %5, i64 noundef %8) #7
  %10 = call noundef nonnull align 4 dereferenceable(4) ptr @_ZNK3gmx12ArrayRefIterIfEdeEv(ptr noundef nonnull align 8 dereferenceable(8) %5) #7
  call void @llvm.lifetime.end.p0(i64 8, ptr %5) #7
  ret ptr %10
}

; Function Attrs: mustprogress nounwind uwtable
define linkonce_odr noundef nonnull align 4 dereferenceable(4) ptr @_ZNK3gmx8ArrayRefIfEixEm(ptr noundef nonnull align 8 dereferenceable(16) %0, i64 noundef %1) #2 comdat align 2 {
  %3 = alloca ptr, align 8
  %4 = alloca i64, align 8
  store ptr %0, ptr %3, align 8, !tbaa !140
  store i64 %1, ptr %4, align 8, !tbaa !13
  %5 = load ptr, ptr %3, align 8
  %6 = getelementptr inbounds nuw %"class.gmx::ArrayRef", ptr %5, i32 0, i32 0
  %7 = load i64, ptr %4, align 8, !tbaa !13
  %8 = call noundef nonnull align 4 dereferenceable(4) ptr @_ZNK3gmx5boost14stl_interfaces2v118iterator_interfaceINS_12ArrayRefIterIfEESt26random_access_iterator_tagfRfPflvEixIS5_EEDTcmpLclsr3stdE7declvalIRT_EEfp_declsr3stdE7declvalISC_EEEl(ptr noundef nonnull align 1 dereferenceable(1) %6, i64 noundef %7) #7
  ret ptr %8
}

; Function Attrs: mustprogress nounwind uwtable
define void @_Z23unwrap_periodic_pmegridP9gmx_pme_tN3gmx8ArrayRefIfEE(ptr noundef %0, ptr %1, ptr %2) #2 {
  %4 = alloca %"class.gmx::ArrayRef", align 8
  %5 = alloca ptr, align 8
  %6 = alloca i32, align 4
  %7 = alloca i32, align 4
  %8 = alloca i32, align 4
  %9 = alloca i32, align 4
  %10 = alloca i32, align 4
  %11 = alloca i32, align 4
  %12 = alloca i32, align 4
  %13 = alloca i32, align 4
  %14 = alloca i32, align 4
  %15 = alloca i32, align 4
  %16 = call i32 @__kmpc_global_thread_num(ptr @2)
  %17 = getelementptr inbounds nuw { ptr, ptr }, ptr %4, i32 0, i32 0
  store ptr %1, ptr %17, align 8
  %18 = getelementptr inbounds nuw { ptr, ptr }, ptr %4, i32 0, i32 1
  store ptr %2, ptr %18, align 8
  store ptr %0, ptr %5, align 8, !tbaa !4
  call void @llvm.lifetime.start.p0(i64 4, ptr %6) #7
  call void @llvm.lifetime.start.p0(i64 4, ptr %7) #7
  call void @llvm.lifetime.start.p0(i64 4, ptr %8) #7
  call void @llvm.lifetime.start.p0(i64 4, ptr %9) #7
  call void @llvm.lifetime.start.p0(i64 4, ptr %10) #7
  call void @llvm.lifetime.start.p0(i64 4, ptr %11) #7
  call void @llvm.lifetime.start.p0(i64 4, ptr %12) #7
  call void @llvm.lifetime.start.p0(i64 4, ptr %13) #7
  %19 = load ptr, ptr %5, align 8, !tbaa !4
  %20 = getelementptr inbounds nuw %struct.gmx_pme_t, ptr %19, i32 0, i32 18
  %21 = load i32, ptr %20, align 8, !tbaa !187
  store i32 %21, ptr %6, align 4, !tbaa !9
  %22 = load ptr, ptr %5, align 8, !tbaa !4
  %23 = getelementptr inbounds nuw %struct.gmx_pme_t, ptr %22, i32 0, i32 19
  %24 = load i32, ptr %23, align 4, !tbaa !188
  store i32 %24, ptr %7, align 4, !tbaa !9
  %25 = load ptr, ptr %5, align 8, !tbaa !4
  %26 = getelementptr inbounds nuw %struct.gmx_pme_t, ptr %25, i32 0, i32 20
  %27 = load i32, ptr %26, align 8, !tbaa !116
  store i32 %27, ptr %8, align 4, !tbaa !9
  %28 = load ptr, ptr %5, align 8, !tbaa !4
  %29 = getelementptr inbounds nuw %struct.gmx_pme_t, ptr %28, i32 0, i32 33
  %30 = load i32, ptr %29, align 8, !tbaa !117
  store i32 %30, ptr %9, align 4, !tbaa !9
  %31 = load ptr, ptr %5, align 8, !tbaa !4
  %32 = getelementptr inbounds nuw %struct.gmx_pme_t, ptr %31, i32 0, i32 34
  %33 = load i32, ptr %32, align 4, !tbaa !118
  store i32 %33, ptr %10, align 4, !tbaa !9
  %34 = load ptr, ptr %5, align 8, !tbaa !4
  %35 = getelementptr inbounds nuw %struct.gmx_pme_t, ptr %34, i32 0, i32 22
  %36 = load i32, ptr %35, align 8, !tbaa !189
  %37 = sub nsw i32 %36, 1
  store i32 %37, ptr %12, align 4, !tbaa !9
  %38 = load ptr, ptr %5, align 8, !tbaa !4
  %39 = getelementptr inbounds nuw %struct.gmx_pme_t, ptr %38, i32 0, i32 5
  %40 = load i32, ptr %39, align 4, !tbaa !197
  %41 = icmp eq i32 %40, 1
  br i1 %41, label %42, label %107

42:                                               ; preds = %3
  %43 = load ptr, ptr %5, align 8, !tbaa !4
  %44 = getelementptr inbounds nuw %struct.gmx_pme_t, ptr %43, i32 0, i32 6
  %45 = load i32, ptr %44, align 8, !tbaa !193
  %46 = icmp eq i32 %45, 1
  br i1 %46, label %47, label %49

47:                                               ; preds = %42
  %48 = load i32, ptr %7, align 4, !tbaa !9
  br label %53

49:                                               ; preds = %42
  %50 = load ptr, ptr %5, align 8, !tbaa !4
  %51 = getelementptr inbounds nuw %struct.gmx_pme_t, ptr %50, i32 0, i32 33
  %52 = load i32, ptr %51, align 8, !tbaa !117
  br label %53

53:                                               ; preds = %49, %47
  %54 = phi i32 [ %48, %47 ], [ %52, %49 ]
  store i32 %54, ptr %11, align 4, !tbaa !9
  store i32 0, ptr %13, align 4, !tbaa !9
  br label %55

55:                                               ; preds = %103, %53
  %56 = load i32, ptr %13, align 4, !tbaa !9
  %57 = load i32, ptr %12, align 4, !tbaa !9
  %58 = icmp slt i32 %56, %57
  br i1 %58, label %59, label %106

59:                                               ; preds = %55
  call void @llvm.lifetime.start.p0(i64 4, ptr %14) #7
  call void @llvm.lifetime.start.p0(i64 4, ptr %15) #7
  store i32 0, ptr %14, align 4, !tbaa !9
  br label %60

60:                                               ; preds = %99, %59
  %61 = load i32, ptr %14, align 4, !tbaa !9
  %62 = load i32, ptr %11, align 4, !tbaa !9
  %63 = icmp slt i32 %61, %62
  br i1 %63, label %64, label %102

64:                                               ; preds = %60
  store i32 0, ptr %15, align 4, !tbaa !9
  br label %65

65:                                               ; preds = %95, %64
  %66 = load i32, ptr %15, align 4, !tbaa !9
  %67 = load i32, ptr %8, align 4, !tbaa !9
  %68 = icmp slt i32 %66, %67
  br i1 %68, label %69, label %98

69:                                               ; preds = %65
  %70 = load i32, ptr %13, align 4, !tbaa !9
  %71 = load i32, ptr %9, align 4, !tbaa !9
  %72 = mul nsw i32 %70, %71
  %73 = load i32, ptr %14, align 4, !tbaa !9
  %74 = add nsw i32 %72, %73
  %75 = load i32, ptr %10, align 4, !tbaa !9
  %76 = mul nsw i32 %74, %75
  %77 = load i32, ptr %15, align 4, !tbaa !9
  %78 = add nsw i32 %76, %77
  %79 = sext i32 %78 to i64
  %80 = call noundef nonnull align 4 dereferenceable(4) ptr @_ZNK3gmx8ArrayRefIfEixEm(ptr noundef nonnull align 8 dereferenceable(16) %4, i64 noundef %79)
  %81 = load float, ptr %80, align 4, !tbaa !119
  %82 = load i32, ptr %6, align 4, !tbaa !9
  %83 = load i32, ptr %13, align 4, !tbaa !9
  %84 = add nsw i32 %82, %83
  %85 = load i32, ptr %9, align 4, !tbaa !9
  %86 = mul nsw i32 %84, %85
  %87 = load i32, ptr %14, align 4, !tbaa !9
  %88 = add nsw i32 %86, %87
  %89 = load i32, ptr %10, align 4, !tbaa !9
  %90 = mul nsw i32 %88, %89
  %91 = load i32, ptr %15, align 4, !tbaa !9
  %92 = add nsw i32 %90, %91
  %93 = sext i32 %92 to i64
  %94 = call noundef nonnull align 4 dereferenceable(4) ptr @_ZNK3gmx8ArrayRefIfEixEm(ptr noundef nonnull align 8 dereferenceable(16) %4, i64 noundef %93)
  store float %81, ptr %94, align 4, !tbaa !119
  br label %95

95:                                               ; preds = %69
  %96 = load i32, ptr %15, align 4, !tbaa !9
  %97 = add nsw i32 %96, 1
  store i32 %97, ptr %15, align 4, !tbaa !9
  br label %65, !llvm.loop !201

98:                                               ; preds = %65
  br label %99

99:                                               ; preds = %98
  %100 = load i32, ptr %14, align 4, !tbaa !9
  %101 = add nsw i32 %100, 1
  store i32 %101, ptr %14, align 4, !tbaa !9
  br label %60, !llvm.loop !202

102:                                              ; preds = %60
  call void @llvm.lifetime.end.p0(i64 4, ptr %15) #7
  call void @llvm.lifetime.end.p0(i64 4, ptr %14) #7
  br label %103

103:                                              ; preds = %102
  %104 = load i32, ptr %13, align 4, !tbaa !9
  %105 = add nsw i32 %104, 1
  store i32 %105, ptr %13, align 4, !tbaa !9
  br label %55, !llvm.loop !203

106:                                              ; preds = %55
  br label %107

107:                                              ; preds = %106, %3
  %108 = load ptr, ptr %5, align 8, !tbaa !4
  %109 = getelementptr inbounds nuw %struct.gmx_pme_t, ptr %108, i32 0, i32 6
  %110 = load i32, ptr %109, align 8, !tbaa !193
  %111 = icmp eq i32 %110, 1
  br i1 %111, label %112, label %116

112:                                              ; preds = %107
  %113 = load ptr, ptr %5, align 8, !tbaa !4
  %114 = getelementptr inbounds nuw %struct.gmx_pme_t, ptr %113, i32 0, i32 11
  %115 = load i32, ptr %114, align 4, !tbaa !204
  call void @__kmpc_push_num_threads(ptr @2, i32 %16, i32 %115)
  call void (ptr, i32, ptr, ...) @__kmpc_fork_call(ptr @2, i32 7, ptr @_Z23unwrap_periodic_pmegridP9gmx_pme_tN3gmx8ArrayRefIfEE.omp_outlined, ptr %5, ptr %12, ptr %8, ptr %4, ptr %9, ptr %7, ptr %10)
  br label %116

116:                                              ; preds = %112, %107
  %117 = load ptr, ptr %5, align 8, !tbaa !4
  %118 = getelementptr inbounds nuw %struct.gmx_pme_t, ptr %117, i32 0, i32 11
  %119 = load i32, ptr %118, align 4, !tbaa !204
  call void @__kmpc_push_num_threads(ptr @2, i32 %16, i32 %119)
  call void (ptr, i32, ptr, ...) @__kmpc_fork_call(ptr @2, i32 6, ptr @_Z23unwrap_periodic_pmegridP9gmx_pme_tN3gmx8ArrayRefIfEE.omp_outlined.2, ptr %5, ptr %12, ptr %4, ptr %9, ptr %10, ptr %8)
  call void @llvm.lifetime.end.p0(i64 4, ptr %13) #7
  call void @llvm.lifetime.end.p0(i64 4, ptr %12) #7
  call void @llvm.lifetime.end.p0(i64 4, ptr %11) #7
  call void @llvm.lifetime.end.p0(i64 4, ptr %10) #7
  call void @llvm.lifetime.end.p0(i64 4, ptr %9) #7
  call void @llvm.lifetime.end.p0(i64 4, ptr %8) #7
  call void @llvm.lifetime.end.p0(i64 4, ptr %7) #7
  call void @llvm.lifetime.end.p0(i64 4, ptr %6) #7
  ret void
}