; Function Attrs: mustprogress nounwind uwtable
define void @_Z23unwrap_periodic_pmegridP9gmx_pme_tN3gmx8ArrayRefIfEE(ptr noundef %0, ptr %1, ptr %2) local_unnamed_addr #6 {
  %4 = alloca %"class.gmx::ArrayRef", align 8
  %5 = alloca ptr, align 8
  %6 = alloca i32, align 4
  %7 = alloca i32, align 4
  %8 = alloca i32, align 4
  %9 = alloca i32, align 4
  %10 = alloca i32, align 4
  %11 = tail call i32 @__kmpc_global_thread_num(ptr nonnull @2)
  store ptr %1, ptr %4, align 8
  %12 = getelementptr inbounds nuw i8, ptr %4, i64 8
  store ptr %2, ptr %12, align 8
  store ptr %0, ptr %5, align 8, !tbaa !166
  call void @llvm.lifetime.start.p0(i64 4, ptr nonnull %6) #8
  call void @llvm.lifetime.start.p0(i64 4, ptr nonnull %7) #8
  call void @llvm.lifetime.start.p0(i64 4, ptr nonnull %8) #8
  call void @llvm.lifetime.start.p0(i64 4, ptr nonnull %9) #8
  call void @llvm.lifetime.start.p0(i64 4, ptr nonnull %10) #8
  %13 = getelementptr inbounds nuw i8, ptr %0, i64 80
  %14 = load i32, ptr %13, align 8, !tbaa !152
  %15 = getelementptr inbounds nuw i8, ptr %0, i64 84
  %16 = load i32, ptr %15, align 4, !tbaa !153
  store i32 %16, ptr %6, align 4, !tbaa !11
  %17 = getelementptr inbounds nuw i8, ptr %0, i64 88
  %18 = load i32, ptr %17, align 8, !tbaa !105
  store i32 %18, ptr %7, align 4, !tbaa !11
  %19 = getelementptr inbounds nuw i8, ptr %0, i64 152
  %20 = load i32, ptr %19, align 8, !tbaa !106
  store i32 %20, ptr %8, align 4, !tbaa !11
  %21 = getelementptr inbounds nuw i8, ptr %0, i64 156
  %22 = load i32, ptr %21, align 4, !tbaa !107
  store i32 %22, ptr %9, align 4, !tbaa !11
  %23 = getelementptr inbounds nuw i8, ptr %0, i64 96
  %24 = load i32, ptr %23, align 8, !tbaa !154
  %25 = add i32 %24, -1
  store i32 %25, ptr %10, align 4, !tbaa !11
  %26 = getelementptr inbounds nuw i8, ptr %0, i64 20
  %27 = load i32, ptr %26, align 4, !tbaa !162
  %28 = icmp eq i32 %27, 1
  %29 = getelementptr inbounds nuw i8, ptr %0, i64 24
  %30 = load i32, ptr %29, align 8, !tbaa !158
  br i1 %28, label %31, label %.loopexit

31:                                               ; preds = %3
  %32 = icmp eq i32 %30, 1
  %.in = select i1 %32, ptr %6, ptr %19
  %33 = load i32, ptr %.in, align 4, !tbaa !11
  %34 = icmp sgt i32 %24, 1
  %35 = icmp sgt i32 %33, 0
  %or.cond = select i1 %34, i1 %35, i1 false
  %36 = icmp sgt i32 %18, 0
  %or.cond41 = select i1 %or.cond, i1 %36, i1 false
  br i1 %or.cond41, label %.preheader16.us.us.preheader, label %.loopexit

.preheader16.us.us.preheader:                     ; preds = %31
  %37 = sext i32 %22 to i64
  %38 = sext i32 %20 to i64
  %39 = sext i32 %14 to i64
  %wide.trip.count36 = zext nneg i32 %25 to i64
  %wide.trip.count31 = zext nneg i32 %33 to i64
  %wide.trip.count = zext nneg i32 %18 to i64
  br label %.preheader16.us.us

.preheader16.us.us:                               ; preds = %.preheader16.us.us.preheader, %._crit_edge19.split.us.us.us
  %indvars.iv33 = phi i64 [ 0, %.preheader16.us.us.preheader ], [ %indvars.iv.next34, %._crit_edge19.split.us.us.us ]
  %40 = mul nsw i64 %indvars.iv33, %38
  %41 = add nsw i64 %indvars.iv33, %39
  %42 = mul nsw i64 %41, %38
  br label %.preheader.us.us.us

.preheader.us.us.us:                              ; preds = %._crit_edge.us.us.us, %.preheader16.us.us
  %indvars.iv28 = phi i64 [ %indvars.iv.next29, %._crit_edge.us.us.us ], [ 0, %.preheader16.us.us ]
  %43 = add nsw i64 %indvars.iv28, %40
  %44 = mul nsw i64 %43, %37
  %45 = add nsw i64 %indvars.iv28, %42
  %46 = mul nsw i64 %45, %37
  %invariant.gep = getelementptr float, ptr %1, i64 %44
  %invariant.gep39 = getelementptr float, ptr %1, i64 %46
  br label %47

47:                                               ; preds = %47, %.preheader.us.us.us
  %indvars.iv = phi i64 [ %indvars.iv.next, %47 ], [ 0, %.preheader.us.us.us ]
  %gep = getelementptr float, ptr %invariant.gep, i64 %indvars.iv
  %48 = load float, ptr %gep, align 4, !tbaa !109
  %gep40 = getelementptr float, ptr %invariant.gep39, i64 %indvars.iv
  store float %48, ptr %gep40, align 4, !tbaa !109
  %indvars.iv.next = add nuw nsw i64 %indvars.iv, 1
  %exitcond.not = icmp eq i64 %indvars.iv.next, %wide.trip.count
  br i1 %exitcond.not, label %._crit_edge.us.us.us, label %47, !llvm.loop !168

._crit_edge.us.us.us:                             ; preds = %47
  %indvars.iv.next29 = add nuw nsw i64 %indvars.iv28, 1
  %exitcond32.not = icmp eq i64 %indvars.iv.next29, %wide.trip.count31
  br i1 %exitcond32.not, label %._crit_edge19.split.us.us.us, label %.preheader.us.us.us, !llvm.loop !169

._crit_edge19.split.us.us.us:                     ; preds = %._crit_edge.us.us.us
  %indvars.iv.next34 = add nuw nsw i64 %indvars.iv33, 1
  %exitcond37.not = icmp eq i64 %indvars.iv.next34, %wide.trip.count36
  br i1 %exitcond37.not, label %.loopexit, label %.preheader16.us.us, !llvm.loop !170

.loopexit:                                        ; preds = %._crit_edge19.split.us.us.us, %3, %31
  %49 = icmp eq i32 %30, 1
  br i1 %49, label %50, label %53

50:                                               ; preds = %.loopexit
  %51 = getelementptr inbounds nuw i8, ptr %0, i64 68
  %52 = load i32, ptr %51, align 4, !tbaa !171
  tail call void @__kmpc_push_num_threads(ptr nonnull @2, i32 %11, i32 %52)
  call void (ptr, i32, ptr, ...) @__kmpc_fork_call(ptr nonnull @2, i32 7, ptr nonnull @_Z23unwrap_periodic_pmegridP9gmx_pme_tN3gmx8ArrayRefIfEE.omp_outlined, ptr nonnull %5, ptr nonnull %10, ptr nonnull %7, ptr nonnull %4, ptr nonnull %8, ptr nonnull %6, ptr nonnull %9)
  %.pre38 = load ptr, ptr %5, align 8, !tbaa !166
  br label %53

53:                                               ; preds = %50, %.loopexit
  %54 = phi ptr [ %.pre38, %50 ], [ %0, %.loopexit ]
  %55 = getelementptr inbounds nuw i8, ptr %54, i64 68
  %56 = load i32, ptr %55, align 4, !tbaa !171
  call void @__kmpc_push_num_threads(ptr nonnull @2, i32 %11, i32 %56)
  call void (ptr, i32, ptr, ...) @__kmpc_fork_call(ptr nonnull @2, i32 6, ptr nonnull @_Z23unwrap_periodic_pmegridP9gmx_pme_tN3gmx8ArrayRefIfEE.omp_outlined.2, ptr nonnull %5, ptr nonnull %10, ptr nonnull %4, ptr nonnull %8, ptr nonnull %9, ptr nonnull %7)
  call void @llvm.lifetime.end.p0(i64 4, ptr nonnull %10) #8
  call void @llvm.lifetime.end.p0(i64 4, ptr nonnull %9) #8
  call void @llvm.lifetime.end.p0(i64 4, ptr nonnull %8) #8
  call void @llvm.lifetime.end.p0(i64 4, ptr nonnull %7) #8
  call void @llvm.lifetime.end.p0(i64 4, ptr nonnull %6) #8
  ret void
}